target datalayout = "e-m:e-p270:32:32-p271:32:32-p272:64:64-i64:64-i128:128-f80:128-n8:16:32:64-S128"
target triple = "x86_64-pc-linux-gnu"

%struct.yy_buffer_state = type { ptr, ptr, ptr, i32, i32, i32, i32, i32, i32, i32, i32, i32 }

@.str.3 = private unnamed_addr constant [44 x i8] c"out of dynamic memory in yy_create_buffer()\00", align 1

; Function Attrs: nounwind uwtable
define dso_local ptr @jq_yyalloc(i64 noundef %0, ptr noundef %1) #0 {
  %3 = alloca i64, align 8
  %4 = alloca ptr, align 8
  store i64 %0, ptr %3, align 8, !tbaa !55
  store ptr %1, ptr %4, align 8, !tbaa !9
  %5 = load i64, ptr %3, align 8, !tbaa !55
  %6 = call ptr @jv_mem_alloc(i64 noundef %5)
  ret ptr %6
}

; Function Attrs: nounwind uwtable
define dso_local ptr @jq_yy_create_buffer(ptr noundef %0, i32 noundef %1, ptr noundef %2) #0 {
  %4 = alloca ptr, align 8
  %5 = alloca i32, align 4
  %6 = alloca ptr, align 8
  %7 = alloca ptr, align 8
  store ptr %0, ptr %4, align 8, !tbaa !24
  store i32 %1, ptr %5, align 4, !tbaa !34
  store ptr %2, ptr %6, align 8, !tbaa !9
  call void @llvm.lifetime.start.p0(i64 8, ptr %7) #10
  %8 = load ptr, ptr %6, align 8, !tbaa !9
  %9 = call ptr @jq_yyalloc(i64 noundef 64, ptr noundef %8)
  store ptr %9, ptr %7, align 8, !tbaa !28
  %10 = load ptr, ptr %7, align 8, !tbaa !28
  %11 = icmp ne ptr %10, null
  br i1 %11, label %14, label %12

12:                                               ; preds = %3
  %13 = load ptr, ptr %6, align 8, !tbaa !9
  call void @yy_fatal_error(ptr noundef @.str.3, ptr noundef %13) #11
  unreachable

14:                                               ; preds = %3
  %15 = load i32, ptr %5, align 4, !tbaa !34
  %16 = load ptr, ptr %7, align 8, !tbaa !28
  %17 = getelementptr inbounds nuw %struct.yy_buffer_state, ptr %16, i32 0, i32 3
  store i32 %15, ptr %17, align 8, !tbaa !57
  %18 = load ptr, ptr %7, align 8, !tbaa !28
  %19 = getelementptr inbounds nuw %struct.yy_buffer_state, ptr %18, i32 0, i32 3
  %20 = load i32, ptr %19, align 8, !tbaa !57
  %21 = add nsw i32 %20, 2
  %22 = sext i32 %21 to i64
  %23 = load ptr, ptr %6, align 8, !tbaa !9
  %24 = call ptr @jq_yyalloc(i64 noundef %22, ptr noundef %23)
  %25 = load ptr, ptr %7, align 8, !tbaa !28
  %26 = getelementptr inbounds nuw %struct.yy_buffer_state, ptr %25, i32 0, i32 1
  store ptr %24, ptr %26, align 8, !tbaa !53
  %27 = load ptr, ptr %7, align 8, !tbaa !28
  %28 = getelementptr inbounds nuw %struct.yy_buffer_state, ptr %27, i32 0, i32 1
  %29 = load ptr, ptr %28, align 8, !tbaa !53
  %30 = icmp ne ptr %29, null
  br i1 %30, label %33, label %31

31:                                               ; preds = %14
  %32 = load ptr, ptr %6, align 8, !tbaa !9
  call void @yy_fatal_error(ptr noundef @.str.3, ptr noundef %32) #11
  unreachable

33:                                               ; preds = %14
  %34 = load ptr, ptr %7, align 8, !tbaa !28
  %35 = getelementptr inbounds nuw %struct.yy_buffer_state, ptr %34, i32 0, i32 5
  store i32 1, ptr %35, align 8, !tbaa !58
  %36 = load ptr, ptr %7, align 8, !tbaa !28
  %37 = load ptr, ptr %4, align 8, !tbaa !24
  %38 = load ptr, ptr %6, align 8, !tbaa !9
  call void @jq_yy_init_buffer(ptr noundef %36, ptr noundef %37, ptr noundef %38)
  %39 = load ptr, ptr %7, align 8, !tbaa !28
  call void @llvm.lifetime.end.p0(i64 8, ptr %7) #10
  ret ptr %39
}