; Function Attrs: nounwind uwtable
define dso_local nonnull ptr @jq_yy_create_buffer(ptr noundef %0, i32 noundef %1, ptr noundef captures(none) %2) local_unnamed_addr #0 {
  %4 = tail call ptr @jv_mem_alloc(i64 noundef 64) #17
  %.not = icmp eq ptr %4, null
  br i1 %.not, label %5, label %6

5:                                                ; preds = %3
  tail call fastcc void @yy_fatal_error(ptr noundef nonnull @.str.3) #18
  unreachable

6:                                                ; preds = %3
  %7 = getelementptr inbounds nuw i8, ptr %4, i64 24
  store i32 %1, ptr %7, align 8, !tbaa !27
  %8 = add nsw i32 %1, 2
  %9 = sext i32 %8 to i64
  %10 = tail call ptr @jv_mem_alloc(i64 noundef %9) #17
  %11 = getelementptr inbounds nuw i8, ptr %4, i64 8
  store ptr %10, ptr %11, align 8, !tbaa !29
  %.not14 = icmp eq ptr %10, null
  br i1 %.not14, label %12, label %13

12:                                               ; preds = %6
  tail call fastcc void @yy_fatal_error(ptr noundef nonnull @.str.3) #18
  unreachable

13:                                               ; preds = %6
  %14 = getelementptr inbounds nuw i8, ptr %4, i64 32
  store i32 1, ptr %14, align 8, !tbaa !30
  tail call fastcc void @jq_yy_init_buffer(ptr noundef nonnull %4, ptr noundef %0, ptr noundef %2)
  ret ptr %4
}